target datalayout = "e-m:e-p270:32:32-p271:32:32-p272:64:64-i64:64-i128:128-f80:128-n8:16:32:64-S128"
target triple = "x86_64-pc-linux-gnu"

%"class.icu_77::Calendar" = type <{ %"class.icu_77::UObject", [24 x i32], [24 x i8], i8, [7 x i8], double, ptr, i8, i16, i8, i32, i32, i32, i8, i8, i16, [4 x i8], ptr, ptr }>
%"class.icu_77::UObject" = type { ptr }

@_ZL17gJapaneseEraRules = internal global ptr null, align 8

; Function Attrs: inlinehint mustprogress nounwind uwtable
define linkonce_odr void @_ZN6icu_778Calendar11internalSetE19UCalendarDateFieldsi(ptr noundef nonnull align 8 dereferenceable(192) %0, i32 noundef %1, i32 noundef %2) #5 comdat align 2 {
  %4 = alloca ptr, align 8
  %5 = alloca i32, align 4
  %6 = alloca i32, align 4
  store ptr %0, ptr %4, align 8, !tbaa !22
  store i32 %1, ptr %5, align 4, !tbaa !24
  store i32 %2, ptr %6, align 4, !tbaa !11
  %7 = load ptr, ptr %4, align 8
  %8 = load i32, ptr %6, align 4, !tbaa !11
  %9 = getelementptr inbounds nuw %"class.icu_77::Calendar", ptr %7, i32 0, i32 1
  %10 = load i32, ptr %5, align 4, !tbaa !24
  %11 = zext i32 %10 to i64
  %12 = getelementptr inbounds nuw [24 x i32], ptr %9, i64 0, i64 %11
  store i32 %8, ptr %12, align 4, !tbaa !11
  %13 = getelementptr inbounds nuw %"class.icu_77::Calendar", ptr %7, i32 0, i32 2
  %14 = load i32, ptr %5, align 4, !tbaa !24
  %15 = zext i32 %14 to i64
  %16 = getelementptr inbounds nuw [24 x i8], ptr %13, i64 0, i64 %15
  store i8 1, ptr %16, align 1, !tbaa !8
  ret void
}

; Function Attrs: inlinehint mustprogress nounwind uwtable
define internal noundef signext i8 @_ZL9U_FAILURE10UErrorCode(i32 noundef %0) #5 {
  %2 = alloca i32, align 4
  store i32 %0, ptr %2, align 4, !tbaa !18
  %3 = load i32, ptr %2, align 4, !tbaa !18
  %4 = icmp sgt i32 %3, 0
  %5 = zext i1 %4 to i8
  ret i8 %5
}

; Function Attrs: inlinehint mustprogress nounwind uwtable
define linkonce_odr noundef i32 @_ZNK6icu_778Calendar11internalGetE19UCalendarDateFields(ptr noundef nonnull align 8 dereferenceable(192) %0, i32 noundef %1) #5 comdat align 2 {
  %3 = alloca ptr, align 8
  %4 = alloca i32, align 4
  store ptr %0, ptr %3, align 8, !tbaa !22
  store i32 %1, ptr %4, align 4, !tbaa !24
  %5 = load ptr, ptr %3, align 8
  %6 = getelementptr inbounds nuw %"class.icu_77::Calendar", ptr %5, i32 0, i32 1
  %7 = load i32, ptr %4, align 4, !tbaa !24
  %8 = zext i32 %7 to i64
  %9 = getelementptr inbounds nuw [24 x i32], ptr %6, i64 0, i64 %8
  %10 = load i32, ptr %9, align 4, !tbaa !11
  ret i32 %10
}

; Function Attrs: mustprogress uwtable
define void @_ZN6icu_7716JapaneseCalendar19handleComputeFieldsEiR10UErrorCode(ptr noundef nonnull align 8 dereferenceable(222) %0, i32 noundef %1, ptr noundef nonnull align 4 dereferenceable(4) %2) unnamed_addr #1 align 2 {
  %4 = alloca ptr, align 8
  %5 = alloca i32, align 4
  %6 = alloca ptr, align 8
  %7 = alloca i32, align 4
  %8 = alloca i32, align 4
  %9 = alloca i32, align 4
  %10 = alloca i32, align 4
  store ptr %0, ptr %4, align 8, !tbaa !3
  store i32 %1, ptr %5, align 4, !tbaa !11
  store ptr %2, ptr %6, align 8, !tbaa !15
  %11 = load ptr, ptr %4, align 8
  %12 = load i32, ptr %5, align 4, !tbaa !11
  %13 = load ptr, ptr %6, align 8, !tbaa !15
  call void @_ZN6icu_7717GregorianCalendar19handleComputeFieldsEiR10UErrorCode(ptr noundef nonnull align 8 dereferenceable(222) %11, i32 noundef %12, ptr noundef nonnull align 4 dereferenceable(4) %13)
  call void @llvm.lifetime.start.p0(i64 4, ptr %7) #10
  %14 = call noundef i32 @_ZNK6icu_778Calendar11internalGetE19UCalendarDateFields(ptr noundef nonnull align 8 dereferenceable(192) %11, i32 noundef 19)
  store i32 %14, ptr %7, align 4, !tbaa !11
  call void @llvm.lifetime.start.p0(i64 4, ptr %8) #10
  %15 = load ptr, ptr @_ZL17gJapaneseEraRules, align 8, !tbaa !20
  %16 = load i32, ptr %7, align 4, !tbaa !11
  %17 = load ptr, ptr %6, align 8, !tbaa !15
  %18 = load ptr, ptr %11, align 8, !tbaa !16
  %19 = getelementptr inbounds ptr, ptr %18, i64 34
  %20 = load ptr, ptr %19, align 8
  %21 = call noundef i32 %20(ptr noundef nonnull align 8 dereferenceable(192) %11, ptr noundef nonnull align 4 dereferenceable(4) %17)
  %22 = add nsw i32 %21, 1
  %23 = call noundef i32 @_ZNK6icu_778Calendar11internalGetE19UCalendarDateFields(ptr noundef nonnull align 8 dereferenceable(192) %11, i32 noundef 5)
  %24 = load ptr, ptr %6, align 8, !tbaa !15
  %25 = call noundef i32 @_ZNK6icu_778EraRules11getEraIndexEiiiR10UErrorCode(ptr noundef nonnull align 8 dereferenceable(16) %15, i32 noundef %16, i32 noundef %22, i32 noundef %23, ptr noundef nonnull align 4 dereferenceable(4) %24)
  store i32 %25, ptr %8, align 4, !tbaa !11
  call void @llvm.lifetime.start.p0(i64 4, ptr %9) #10
  %26 = load ptr, ptr @_ZL17gJapaneseEraRules, align 8, !tbaa !20
  %27 = load i32, ptr %8, align 4, !tbaa !11
  %28 = load ptr, ptr %6, align 8, !tbaa !15
  %29 = call noundef i32 @_ZNK6icu_778EraRules12getStartYearEiR10UErrorCode(ptr noundef nonnull align 8 dereferenceable(16) %26, i32 noundef %27, ptr noundef nonnull align 4 dereferenceable(4) %28)
  %30 = sub nsw i32 %29, 1
  store i32 %30, ptr %9, align 4, !tbaa !11
  %31 = load ptr, ptr %6, align 8, !tbaa !15
  %32 = load i32, ptr %31, align 4, !tbaa !18
  %33 = call noundef signext i8 @_ZL9U_FAILURE10UErrorCode(i32 noundef %32)
  %34 = icmp ne i8 %33, 0
  br i1 %34, label %35, label %36

35:                                               ; preds = %3
  store i32 1, ptr %10, align 4
  br label %47

36:                                               ; preds = %3
  %37 = load i32, ptr %7, align 4, !tbaa !11
  %38 = load i32, ptr %9, align 4, !tbaa !11
  %39 = sub nsw i32 0, %38
  %40 = call signext i8 @uprv_add32_overflow_77(i32 noundef %37, i32 noundef %39, ptr noundef %7)
  %41 = icmp ne i8 %40, 0
  br i1 %41, label %42, label %44

42:                                               ; preds = %36
  %43 = load ptr, ptr %6, align 8, !tbaa !15
  store i32 1, ptr %43, align 4, !tbaa !18
  store i32 1, ptr %10, align 4
  br label %47

44:                                               ; preds = %36
  %45 = load i32, ptr %8, align 4, !tbaa !11
  call void @_ZN6icu_778Calendar11internalSetE19UCalendarDateFieldsi(ptr noundef nonnull align 8 dereferenceable(192) %11, i32 noundef 0, i32 noundef %45)
  %46 = load i32, ptr %7, align 4, !tbaa !11
  call void @_ZN6icu_778Calendar11internalSetE19UCalendarDateFieldsi(ptr noundef nonnull align 8 dereferenceable(192) %11, i32 noundef 1, i32 noundef %46)
  store i32 0, ptr %10, align 4
  br label %47

47:                                               ; preds = %44, %42, %35
  call void @llvm.lifetime.end.p0(i64 4, ptr %9) #10
  call void @llvm.lifetime.end.p0(i64 4, ptr %8) #10
  call void @llvm.lifetime.end.p0(i64 4, ptr %7) #10
  %48 = load i32, ptr %10, align 4
  switch i32 %48, label %50 [
    i32 0, label %49
    i32 1, label %49
  ]

49:                                               ; preds = %47, %47
  ret void

50:                                               ; preds = %47
  unreachable
}