; Function Attrs: mustprogress uwtable
define void @_ZN6icu_7716JapaneseCalendar19handleComputeFieldsEiR10UErrorCode(ptr noundef nonnull align 8 dereferenceable(222) %0, i32 noundef %1, ptr noundef nonnull align 4 dereferenceable(4) %2) unnamed_addr #1 align 2 {
  %4 = alloca i32, align 4
  tail call void @_ZN6icu_7717GregorianCalendar19handleComputeFieldsEiR10UErrorCode(ptr noundef nonnull align 8 dereferenceable(222) %0, i32 noundef %1, ptr noundef nonnull align 4 dereferenceable(4) %2)
  call void @llvm.lifetime.start.p0(i64 4, ptr nonnull %4) #10
  %5 = getelementptr inbounds nuw i8, ptr %0, i64 8
  %6 = getelementptr inbounds nuw i8, ptr %0, i64 84
  %7 = load i32, ptr %6, align 4, !tbaa !3
  store i32 %7, ptr %4, align 4, !tbaa !3
  %8 = load ptr, ptr @_ZL17gJapaneseEraRules, align 8, !tbaa !11
  %9 = load ptr, ptr %0, align 8, !tbaa !7
  %10 = getelementptr inbounds nuw i8, ptr %9, i64 272
  %11 = load ptr, ptr %10, align 8
  %12 = tail call noundef i32 %11(ptr noundef nonnull align 8 dereferenceable(192) %0, ptr noundef nonnull align 4 dereferenceable(4) %2)
  %13 = add nsw i32 %12, 1
  %14 = getelementptr inbounds nuw i8, ptr %0, i64 28
  %15 = load i32, ptr %14, align 4, !tbaa !3
  %16 = tail call noundef i32 @_ZNK6icu_778EraRules11getEraIndexEiiiR10UErrorCode(ptr noundef nonnull align 8 dereferenceable(16) %8, i32 noundef %7, i32 noundef %13, i32 noundef %15, ptr noundef nonnull align 4 dereferenceable(4) %2)
  %17 = load ptr, ptr @_ZL17gJapaneseEraRules, align 8, !tbaa !11
  %18 = tail call noundef i32 @_ZNK6icu_778EraRules12getStartYearEiR10UErrorCode(ptr noundef nonnull align 8 dereferenceable(16) %17, i32 noundef %16, ptr noundef nonnull align 4 dereferenceable(4) %2)
  %19 = load i32, ptr %2, align 4, !tbaa !9
  %20 = icmp slt i32 %19, 1
  br i1 %20, label %21, label %30

21:                                               ; preds = %3
  %22 = sub nsw i32 1, %18
  %23 = call signext i8 @uprv_add32_overflow_77(i32 noundef %7, i32 noundef %22, ptr noundef nonnull %4)
  %.not10 = icmp eq i8 %23, 0
  br i1 %.not10, label %25, label %24

24:                                               ; preds = %21
  store i32 1, ptr %2, align 4, !tbaa !9
  br label %30

25:                                               ; preds = %21
  store i32 %16, ptr %5, align 8, !tbaa !3
  %26 = getelementptr inbounds nuw i8, ptr %0, i64 104
  store i8 1, ptr %26, align 8, !tbaa !23
  %27 = load i32, ptr %4, align 4, !tbaa !3
  %28 = getelementptr inbounds nuw i8, ptr %0, i64 12
  store i32 %27, ptr %28, align 4, !tbaa !3
  %29 = getelementptr inbounds nuw i8, ptr %0, i64 105
  store i8 1, ptr %29, align 1, !tbaa !23
  br label %30

30:                                               ; preds = %3, %25, %24
  call void @llvm.lifetime.end.p0(i64 4, ptr nonnull %4) #10
  ret void
}